target datalayout = "e-m:e-p270:32:32-p271:32:32-p272:64:64-i64:64-i128:128-f80:128-n8:16:32:64-S128"
target triple = "x86_64-pc-linux-gnu"

%struct.poly1305_data_st = type { ptr, i32, %struct.poly1305_context }
%struct.poly1305_context = type { [24 x double], [4 x i32], [16 x i8], i64, %struct.anon }
%struct.anon = type { ptr, ptr }

; Function Attrs: nounwind uwtable
define internal i32 @poly1305_update(ptr noundef %0, ptr noundef %1, i64 noundef %2) #0 {
  %4 = alloca i32, align 4
  %5 = alloca ptr, align 8
  %6 = alloca ptr, align 8
  %7 = alloca i64, align 8
  %8 = alloca ptr, align 8
  %9 = alloca i32, align 4
  store ptr %0, ptr %5, align 8, !tbaa !3
  store ptr %1, ptr %6, align 8, !tbaa !19
  store i64 %2, ptr %7, align 8, !tbaa !18
  call void @llvm.lifetime.start.p0(i64 8, ptr %8) #4
  %10 = load ptr, ptr %5, align 8, !tbaa !3
  store ptr %10, ptr %8, align 8, !tbaa !7
  %11 = load ptr, ptr %8, align 8, !tbaa !7
  %12 = getelementptr inbounds nuw %struct.poly1305_data_st, ptr %11, i32 0, i32 1
  store i32 1, ptr %12, align 8, !tbaa !23
  %13 = load i64, ptr %7, align 8, !tbaa !18
  %14 = icmp eq i64 %13, 0
  br i1 %14, label %15, label %16

15:                                               ; preds = %3
  store i32 1, ptr %4, align 4
  store i32 1, ptr %9, align 4
  br label %21

16:                                               ; preds = %3
  %17 = load ptr, ptr %8, align 8, !tbaa !7
  %18 = getelementptr inbounds nuw %struct.poly1305_data_st, ptr %17, i32 0, i32 2
  %19 = load ptr, ptr %6, align 8, !tbaa !19
  %20 = load i64, ptr %7, align 8, !tbaa !18
  call void @Poly1305_Update(ptr noundef %18, ptr noundef %19, i64 noundef %20)
  store i32 1, ptr %4, align 4
  store i32 1, ptr %9, align 4
  br label %21

21:                                               ; preds = %16, %15
  call void @llvm.lifetime.end.p0(i64 8, ptr %8) #4
  %22 = load i32, ptr %4, align 4
  ret i32 %22
}