; Function Attrs: nounwind uwtable
define internal noundef i32 @poly1305_update(ptr noundef initializes((8, 12)) %0, ptr noundef %1, i64 noundef %2) #0 {
  %4 = getelementptr inbounds nuw i8, ptr %0, i64 8
  store i32 1, ptr %4, align 8, !tbaa !21
  %5 = icmp eq i64 %2, 0
  br i1 %5, label %8, label %6

6:                                                ; preds = %3
  %7 = getelementptr inbounds nuw i8, ptr %0, i64 16
  tail call void @Poly1305_Update(ptr noundef nonnull %7, ptr noundef %1, i64 noundef %2) #4
  br label %8

8:                                                ; preds = %3, %6
  ret i32 1
}